(dp0
S'bins'
p1
(lp2
(dp3
S'cut'
p4
S'(probe_isTracker && tag_HLT_IsoMu27_v==1 && tag_pt > 29 && fabs(tag_eta) < 2.4 && (tag_pfIso04_charged + max(0, tag_pfIso04_neutral+tag_pfIso04_photon-(0.5*tag_pfIso04_sumPU)))/tag_pt < 0.2 && tag_isTight && 60 < pair_mass && pair_mass < 140 && pair_dR > 0.3 && pair_probeMultiplicity == 1) * (fabs(probe_eta) >= 0.000000 && fabs(probe_eta) < 0.900000) * (probe_pt >= 10.000000 && probe_pt < 15.000000)'
p5
sS'name'
p6
S'bin00_fabs(probe_eta)_0p00To0p90_probe_pt_10p00To15p00'
p7
sS'vars'
p8
(dp9
S'probe_pt'
p10
(dp11
S'max'
p12
F15.0
sS'min'
p13
F10.0
ssS'fabs(probe_eta)'
p14
(dp15
g12
F0.9
sg13
F0.0
sssS'title'
p16
S'; 0.000 < fabs(probe_eta) < 0.900; 10.000 < probe_pt < 15.000'
p17
sa(dp18
g4
S'(probe_isTracker && tag_HLT_IsoMu27_v==1 && tag_pt > 29 && fabs(tag_eta) < 2.4 && (tag_pfIso04_charged + max(0, tag_pfIso04_neutral+tag_pfIso04_photon-(0.5*tag_pfIso04_sumPU)))/tag_pt < 0.2 && tag_isTight && 60 < pair_mass && pair_mass < 140 && pair_dR > 0.3 && pair_probeMultiplicity == 1) * (fabs(probe_eta) >= 0.900000 && fabs(probe_eta) < 1.200000) * (probe_pt >= 10.000000 && probe_pt < 15.000000)'
p19
sg6
S'bin01_fabs(probe_eta)_0p90To1p20_probe_pt_10p00To15p00'
p20
sg8
(dp21
g10
(dp22
g12
F15.0
sg13
F10.0
ssg14
(dp23
g12
F1.2
sg13
F0.9
sssg16
S'; 0.900 < fabs(probe_eta) < 1.200; 10.000 < probe_pt < 15.000'
p24
sa(dp25
g4
S'(probe_isTracker && tag_HLT_IsoMu27_v==1 && tag_pt > 29 && fabs(tag_eta) < 2.4 && (tag_pfIso04_charged + max(0, tag_pfIso04_neutral+tag_pfIso04_photon-(0.5*tag_pfIso04_sumPU)))/tag_pt < 0.2 && tag_isTight && 60 < pair_mass && pair_mass < 140 && pair_dR > 0.3 && pair_probeMultiplicity == 1) * (fabs(probe_eta) >= 1.200000 && fabs(probe_eta) < 2.100000) * (probe_pt >= 10.000000 && probe_pt < 15.000000)'
p26
sg6
S'bin02_fabs(probe_eta)_1p20To2p10_probe_pt_10p00To15p00'
p27
sg8
(dp28
g10
(dp29
g12
F15.0
sg13
F10.0
ssg14
(dp30
g12
F2.1
sg13
F1.2
sssg16
S'; 1.200 < fabs(probe_eta) < 2.100; 10.000 < probe_pt < 15.000'
p31
sa(dp32
g4
S'(probe_isTracker && tag_HLT_IsoMu27_v==1 && tag_pt > 29 && fabs(tag_eta) < 2.4 && (tag_pfIso04_charged + max(0, tag_pfIso04_neutral+tag_pfIso04_photon-(0.5*tag_pfIso04_sumPU)))/tag_pt < 0.2 && tag_isTight && 60 < pair_mass && pair_mass < 140 && pair_dR > 0.3 && pair_probeMultiplicity == 1) * (fabs(probe_eta) >= 2.100000 && fabs(probe_eta) < 2.400000) * (probe_pt >= 10.000000 && probe_pt < 15.000000)'
p33
sg6
S'bin03_fabs(probe_eta)_2p10To2p40_probe_pt_10p00To15p00'
p34
sg8
(dp35
g10
(dp36
g12
F15.0
sg13
F10.0
ssg14
(dp37
g12
F2.4
sg13
F2.1
sssg16
S'; 2.100 < fabs(probe_eta) < 2.400; 10.000 < probe_pt < 15.000'
p38
sa(dp39
g4
S'(probe_isTracker && tag_HLT_IsoMu27_v==1 && tag_pt > 29 && fabs(tag_eta) < 2.4 && (tag_pfIso04_charged + max(0, tag_pfIso04_neutral+tag_pfIso04_photon-(0.5*tag_pfIso04_sumPU)))/tag_pt < 0.2 && tag_isTight && 60 < pair_mass && pair_mass < 140 && pair_dR > 0.3 && pair_probeMultiplicity == 1) * (fabs(probe_eta) >= 0.000000 && fabs(probe_eta) < 0.900000) * (probe_pt >= 15.000000 && probe_pt < 20.000000)'
p40
sg6
S'bin04_fabs(probe_eta)_0p00To0p90_probe_pt_15p00To20p00'
p41
sg8
(dp42
g10
(dp43
g12
F20.0
sg13
F15.0
ssg14
(dp44
g12
F0.9
sg13
F0.0
sssg16
S'; 0.000 < fabs(probe_eta) < 0.900; 15.000 < probe_pt < 20.000'
p45
sa(dp46
g4
S'(probe_isTracker && tag_HLT_IsoMu27_v==1 && tag_pt > 29 && fabs(tag_eta) < 2.4 && (tag_pfIso04_charged + max(0, tag_pfIso04_neutral+tag_pfIso04_photon-(0.5*tag_pfIso04_sumPU)))/tag_pt < 0.2 && tag_isTight && 60 < pair_mass && pair_mass < 140 && pair_dR > 0.3 && pair_probeMultiplicity == 1) * (fabs(probe_eta) >= 0.900000 && fabs(probe_eta) < 1.200000) * (probe_pt >= 15.000000 && probe_pt < 20.000000)'
p47
sg6
S'bin05_fabs(probe_eta)_0p90To1p20_probe_pt_15p00To20p00'
p48
sg8
(dp49
g10
(dp50
g12
F20.0
sg13
F15.0
ssg14
(dp51
g12
F1.2
sg13
F0.9
sssg16
S'; 0.900 < fabs(probe_eta) < 1.200; 15.000 < probe_pt < 20.000'
p52
sa(dp53
g4
S'(probe_isTracker && tag_HLT_IsoMu27_v==1 && tag_pt > 29 && fabs(tag_eta) < 2.4 && (tag_pfIso04_charged + max(0, tag_pfIso04_neutral+tag_pfIso04_photon-(0.5*tag_pfIso04_sumPU)))/tag_pt < 0.2 && tag_isTight && 60 < pair_mass && pair_mass < 140 && pair_dR > 0.3 && pair_probeMultiplicity == 1) * (fabs(probe_eta) >= 1.200000 && fabs(probe_eta) < 2.100000) * (probe_pt >= 15.000000 && probe_pt < 20.000000)'
p54
sg6
S'bin06_fabs(probe_eta)_1p20To2p10_probe_pt_15p00To20p00'
p55
sg8
(dp56
g10
(dp57
g12
F20.0
sg13
F15.0
ssg14
(dp58
g12
F2.1
sg13
F1.2
sssg16
S'; 1.200 < fabs(probe_eta) < 2.100; 15.000 < probe_pt < 20.000'
p59
sa(dp60
g4
S'(probe_isTracker && tag_HLT_IsoMu27_v==1 && tag_pt > 29 && fabs(tag_eta) < 2.4 && (tag_pfIso04_charged + max(0, tag_pfIso04_neutral+tag_pfIso04_photon-(0.5*tag_pfIso04_sumPU)))/tag_pt < 0.2 && tag_isTight && 60 < pair_mass && pair_mass < 140 && pair_dR > 0.3 && pair_probeMultiplicity == 1) * (fabs(probe_eta) >= 2.100000 && fabs(probe_eta) < 2.400000) * (probe_pt >= 15.000000 && probe_pt < 20.000000)'
p61
sg6
S'bin07_fabs(probe_eta)_2p10To2p40_probe_pt_15p00To20p00'
p62
sg8
(dp63
g10
(dp64
g12
F20.0
sg13
F15.0
ssg14
(dp65
g12
F2.4
sg13
F2.1
sssg16
S'; 2.100 < fabs(probe_eta) < 2.400; 15.000 < probe_pt < 20.000'
p66
sa(dp67
g4
S'(probe_isTracker && tag_HLT_IsoMu27_v==1 && tag_pt > 29 && fabs(tag_eta) < 2.4 && (tag_pfIso04_charged + max(0, tag_pfIso04_neutral+tag_pfIso04_photon-(0.5*tag_pfIso04_sumPU)))/tag_pt < 0.2 && tag_isTight && 60 < pair_mass && pair_mass < 140 && pair_dR > 0.3 && pair_probeMultiplicity == 1) * (fabs(probe_eta) >= 0.000000 && fabs(probe_eta) < 0.900000) * (probe_pt >= 20.000000 && probe_pt < 25.000000)'
p68
sg6
S'bin08_fabs(probe_eta)_0p00To0p90_probe_pt_20p00To25p00'
p69
sg8
(dp70
g10
(dp71
g12
F25.0
sg13
F20.0
ssg14
(dp72
g12
F0.9
sg13
F0.0
sssg16
S'; 0.000 < fabs(probe_eta) < 0.900; 20.000 < probe_pt < 25.000'
p73
sa(dp74
g4
S'(probe_isTracker && tag_HLT_IsoMu27_v==1 && tag_pt > 29 && fabs(tag_eta) < 2.4 && (tag_pfIso04_charged + max(0, tag_pfIso04_neutral+tag_pfIso04_photon-(0.5*tag_pfIso04_sumPU)))/tag_pt < 0.2 && tag_isTight && 60 < pair_mass && pair_mass < 140 && pair_dR > 0.3 && pair_probeMultiplicity == 1) * (fabs(probe_eta) >= 0.900000 && fabs(probe_eta) < 1.200000) * (probe_pt >= 20.000000 && probe_pt < 25.000000)'
p75
sg6
S'bin09_fabs(probe_eta)_0p90To1p20_probe_pt_20p00To25p00'
p76
sg8
(dp77
g10
(dp78
g12
F25.0
sg13
F20.0
ssg14
(dp79
g12
F1.2
sg13
F0.9
sssg16
S'; 0.900 < fabs(probe_eta) < 1.200; 20.000 < probe_pt < 25.000'
p80
sa(dp81
g4
S'(probe_isTracker && tag_HLT_IsoMu27_v==1 && tag_pt > 29 && fabs(tag_eta) < 2.4 && (tag_pfIso04_charged + max(0, tag_pfIso04_neutral+tag_pfIso04_photon-(0.5*tag_pfIso04_sumPU)))/tag_pt < 0.2 && tag_isTight && 60 < pair_mass && pair_mass < 140 && pair_dR > 0.3 && pair_probeMultiplicity == 1) * (fabs(probe_eta) >= 1.200000 && fabs(probe_eta) < 2.100000) * (probe_pt >= 20.000000 && probe_pt < 25.000000)'
p82
sg6
S'bin10_fabs(probe_eta)_1p20To2p10_probe_pt_20p00To25p00'
p83
sg8
(dp84
g10
(dp85
g12
F25.0
sg13
F20.0
ssg14
(dp86
g12
F2.1
sg13
F1.2
sssg16
S'; 1.200 < fabs(probe_eta) < 2.100; 20.000 < probe_pt < 25.000'
p87
sa(dp88
g4
S'(probe_isTracker && tag_HLT_IsoMu27_v==1 && tag_pt > 29 && fabs(tag_eta) < 2.4 && (tag_pfIso04_charged + max(0, tag_pfIso04_neutral+tag_pfIso04_photon-(0.5*tag_pfIso04_sumPU)))/tag_pt < 0.2 && tag_isTight && 60 < pair_mass && pair_mass < 140 && pair_dR > 0.3 && pair_probeMultiplicity == 1) * (fabs(probe_eta) >= 2.100000 && fabs(probe_eta) < 2.400000) * (probe_pt >= 20.000000 && probe_pt < 25.000000)'
p89
sg6
S'bin11_fabs(probe_eta)_2p10To2p40_probe_pt_20p00To25p00'
p90
sg8
(dp91
g10
(dp92
g12
F25.0
sg13
F20.0
ssg14
(dp93
g12
F2.4
sg13
F2.1
sssg16
S'; 2.100 < fabs(probe_eta) < 2.400; 20.000 < probe_pt < 25.000'
p94
sa(dp95
g4
S'(probe_isTracker && tag_HLT_IsoMu27_v==1 && tag_pt > 29 && fabs(tag_eta) < 2.4 && (tag_pfIso04_charged + max(0, tag_pfIso04_neutral+tag_pfIso04_photon-(0.5*tag_pfIso04_sumPU)))/tag_pt < 0.2 && tag_isTight && 60 < pair_mass && pair_mass < 140 && pair_dR > 0.3 && pair_probeMultiplicity == 1) * (fabs(probe_eta) >= 0.000000 && fabs(probe_eta) < 0.900000) * (probe_pt >= 25.000000 && probe_pt < 30.000000)'
p96
sg6
S'bin12_fabs(probe_eta)_0p00To0p90_probe_pt_25p00To30p00'
p97
sg8
(dp98
g10
(dp99
g12
F30.0
sg13
F25.0
ssg14
(dp100
g12
F0.9
sg13
F0.0
sssg16
S'; 0.000 < fabs(probe_eta) < 0.900; 25.000 < probe_pt < 30.000'
p101
sa(dp102
g4
S'(probe_isTracker && tag_HLT_IsoMu27_v==1 && tag_pt > 29 && fabs(tag_eta) < 2.4 && (tag_pfIso04_charged + max(0, tag_pfIso04_neutral+tag_pfIso04_photon-(0.5*tag_pfIso04_sumPU)))/tag_pt < 0.2 && tag_isTight && 60 < pair_mass && pair_mass < 140 && pair_dR > 0.3 && pair_probeMultiplicity == 1) * (fabs(probe_eta) >= 0.900000 && fabs(probe_eta) < 1.200000) * (probe_pt >= 25.000000 && probe_pt < 30.000000)'
p103
sg6
S'bin13_fabs(probe_eta)_0p90To1p20_probe_pt_25p00To30p00'
p104
sg8
(dp105
g10
(dp106
g12
F30.0
sg13
F25.0
ssg14
(dp107
g12
F1.2
sg13
F0.9
sssg16
S'; 0.900 < fabs(probe_eta) < 1.200; 25.000 < probe_pt < 30.000'
p108
sa(dp109
g4
S'(probe_isTracker && tag_HLT_IsoMu27_v==1 && tag_pt > 29 && fabs(tag_eta) < 2.4 && (tag_pfIso04_charged + max(0, tag_pfIso04_neutral+tag_pfIso04_photon-(0.5*tag_pfIso04_sumPU)))/tag_pt < 0.2 && tag_isTight && 60 < pair_mass && pair_mass < 140 && pair_dR > 0.3 && pair_probeMultiplicity == 1) * (fabs(probe_eta) >= 1.200000 && fabs(probe_eta) < 2.100000) * (probe_pt >= 25.000000 && probe_pt < 30.000000)'
p110
sg6
S'bin14_fabs(probe_eta)_1p20To2p10_probe_pt_25p00To30p00'
p111
sg8
(dp112
g10
(dp113
g12
F30.0
sg13
F25.0
ssg14
(dp114
g12
F2.1
sg13
F1.2
sssg16
S'; 1.200 < fabs(probe_eta) < 2.100; 25.000 < probe_pt < 30.000'
p115
sa(dp116
g4
S'(probe_isTracker && tag_HLT_IsoMu27_v==1 && tag_pt > 29 && fabs(tag_eta) < 2.4 && (tag_pfIso04_charged + max(0, tag_pfIso04_neutral+tag_pfIso04_photon-(0.5*tag_pfIso04_sumPU)))/tag_pt < 0.2 && tag_isTight && 60 < pair_mass && pair_mass < 140 && pair_dR > 0.3 && pair_probeMultiplicity == 1) * (fabs(probe_eta) >= 2.100000 && fabs(probe_eta) < 2.400000) * (probe_pt >= 25.000000 && probe_pt < 30.000000)'
p117
sg6
S'bin15_fabs(probe_eta)_2p10To2p40_probe_pt_25p00To30p00'
p118
sg8
(dp119
g10
(dp120
g12
F30.0
sg13
F25.0
ssg14
(dp121
g12
F2.4
sg13
F2.1
sssg16
S'; 2.100 < fabs(probe_eta) < 2.400; 25.000 < probe_pt < 30.000'
p122
sa(dp123
g4
S'(probe_isTracker && tag_HLT_IsoMu27_v==1 && tag_pt > 29 && fabs(tag_eta) < 2.4 && (tag_pfIso04_charged + max(0, tag_pfIso04_neutral+tag_pfIso04_photon-(0.5*tag_pfIso04_sumPU)))/tag_pt < 0.2 && tag_isTight && 60 < pair_mass && pair_mass < 140 && pair_dR > 0.3 && pair_probeMultiplicity == 1) * (fabs(probe_eta) >= 0.000000 && fabs(probe_eta) < 0.900000) * (probe_pt >= 30.000000 && probe_pt < 40.000000)'
p124
sg6
S'bin16_fabs(probe_eta)_0p00To0p90_probe_pt_30p00To40p00'
p125
sg8
(dp126
g10
(dp127
g12
F40.0
sg13
F30.0
ssg14
(dp128
g12
F0.9
sg13
F0.0
sssg16
S'; 0.000 < fabs(probe_eta) < 0.900; 30.000 < probe_pt < 40.000'
p129
sa(dp130
g4
S'(probe_isTracker && tag_HLT_IsoMu27_v==1 && tag_pt > 29 && fabs(tag_eta) < 2.4 && (tag_pfIso04_charged + max(0, tag_pfIso04_neutral+tag_pfIso04_photon-(0.5*tag_pfIso04_sumPU)))/tag_pt < 0.2 && tag_isTight && 60 < pair_mass && pair_mass < 140 && pair_dR > 0.3 && pair_probeMultiplicity == 1) * (fabs(probe_eta) >= 0.900000 && fabs(probe_eta) < 1.200000) * (probe_pt >= 30.000000 && probe_pt < 40.000000)'
p131
sg6
S'bin17_fabs(probe_eta)_0p90To1p20_probe_pt_30p00To40p00'
p132
sg8
(dp133
g10
(dp134
g12
F40.0
sg13
F30.0
ssg14
(dp135
g12
F1.2
sg13
F0.9
sssg16
S'; 0.900 < fabs(probe_eta) < 1.200; 30.000 < probe_pt < 40.000'
p136
sa(dp137
g4
S'(probe_isTracker && tag_HLT_IsoMu27_v==1 && tag_pt > 29 && fabs(tag_eta) < 2.4 && (tag_pfIso04_charged + max(0, tag_pfIso04_neutral+tag_pfIso04_photon-(0.5*tag_pfIso04_sumPU)))/tag_pt < 0.2 && tag_isTight && 60 < pair_mass && pair_mass < 140 && pair_dR > 0.3 && pair_probeMultiplicity == 1) * (fabs(probe_eta) >= 1.200000 && fabs(probe_eta) < 2.100000) * (probe_pt >= 30.000000 && probe_pt < 40.000000)'
p138
sg6
S'bin18_fabs(probe_eta)_1p20To2p10_probe_pt_30p00To40p00'
p139
sg8
(dp140
g10
(dp141
g12
F40.0
sg13
F30.0
ssg14
(dp142
g12
F2.1
sg13
F1.2
sssg16
S'; 1.200 < fabs(probe_eta) < 2.100; 30.000 < probe_pt < 40.000'
p143
sa(dp144
g4
S'(probe_isTracker && tag_HLT_IsoMu27_v==1 && tag_pt > 29 && fabs(tag_eta) < 2.4 && (tag_pfIso04_charged + max(0, tag_pfIso04_neutral+tag_pfIso04_photon-(0.5*tag_pfIso04_sumPU)))/tag_pt < 0.2 && tag_isTight && 60 < pair_mass && pair_mass < 140 && pair_dR > 0.3 && pair_probeMultiplicity == 1) * (fabs(probe_eta) >= 2.100000 && fabs(probe_eta) < 2.400000) * (probe_pt >= 30.000000 && probe_pt < 40.000000)'
p145
sg6
S'bin19_fabs(probe_eta)_2p10To2p40_probe_pt_30p00To40p00'
p146
sg8
(dp147
g10
(dp148
g12
F40.0
sg13
F30.0
ssg14
(dp149
g12
F2.4
sg13
F2.1
sssg16
S'; 2.100 < fabs(probe_eta) < 2.400; 30.000 < probe_pt < 40.000'
p150
sa(dp151
g4
S'(probe_isTracker && tag_HLT_IsoMu27_v==1 && tag_pt > 29 && fabs(tag_eta) < 2.4 && (tag_pfIso04_charged + max(0, tag_pfIso04_neutral+tag_pfIso04_photon-(0.5*tag_pfIso04_sumPU)))/tag_pt < 0.2 && tag_isTight && 60 < pair_mass && pair_mass < 140 && pair_dR > 0.3 && pair_probeMultiplicity == 1) * (fabs(probe_eta) >= 0.000000 && fabs(probe_eta) < 0.900000) * (probe_pt >= 40.000000 && probe_pt < 50.000000)'
p152
sg6
S'bin20_fabs(probe_eta)_0p00To0p90_probe_pt_40p00To50p00'
p153
sg8
(dp154
g10
(dp155
g12
F50.0
sg13
F40.0
ssg14
(dp156
g12
F0.9
sg13
F0.0
sssg16
S'; 0.000 < fabs(probe_eta) < 0.900; 40.000 < probe_pt < 50.000'
p157
sa(dp158
g4
S'(probe_isTracker && tag_HLT_IsoMu27_v==1 && tag_pt > 29 && fabs(tag_eta) < 2.4 && (tag_pfIso04_charged + max(0, tag_pfIso04_neutral+tag_pfIso04_photon-(0.5*tag_pfIso04_sumPU)))/tag_pt < 0.2 && tag_isTight && 60 < pair_mass && pair_mass < 140 && pair_dR > 0.3 && pair_probeMultiplicity == 1) * (fabs(probe_eta) >= 0.900000 && fabs(probe_eta) < 1.200000) * (probe_pt >= 40.000000 && probe_pt < 50.000000)'
p159
sg6
S'bin21_fabs(probe_eta)_0p90To1p20_probe_pt_40p00To50p00'
p160
sg8
(dp161
g10
(dp162
g12
F50.0
sg13
F40.0
ssg14
(dp163
g12
F1.2
sg13
F0.9
sssg16
S'; 0.900 < fabs(probe_eta) < 1.200; 40.000 < probe_pt < 50.000'
p164
sa(dp165
g4
S'(probe_isTracker && tag_HLT_IsoMu27_v==1 && tag_pt > 29 && fabs(tag_eta) < 2.4 && (tag_pfIso04_charged + max(0, tag_pfIso04_neutral+tag_pfIso04_photon-(0.5*tag_pfIso04_sumPU)))/tag_pt < 0.2 && tag_isTight && 60 < pair_mass && pair_mass < 140 && pair_dR > 0.3 && pair_probeMultiplicity == 1) * (fabs(probe_eta) >= 1.200000 && fabs(probe_eta) < 2.100000) * (probe_pt >= 40.000000 && probe_pt < 50.000000)'
p166
sg6
S'bin22_fabs(probe_eta)_1p20To2p10_probe_pt_40p00To50p00'
p167
sg8
(dp168
g10
(dp169
g12
F50.0
sg13
F40.0
ssg14
(dp170
g12
F2.1
sg13
F1.2
sssg16
S'; 1.200 < fabs(probe_eta) < 2.100; 40.000 < probe_pt < 50.000'
p171
sa(dp172
g4
S'(probe_isTracker && tag_HLT_IsoMu27_v==1 && tag_pt > 29 && fabs(tag_eta) < 2.4 && (tag_pfIso04_charged + max(0, tag_pfIso04_neutral+tag_pfIso04_photon-(0.5*tag_pfIso04_sumPU)))/tag_pt < 0.2 && tag_isTight && 60 < pair_mass && pair_mass < 140 && pair_dR > 0.3 && pair_probeMultiplicity == 1) * (fabs(probe_eta) >= 2.100000 && fabs(probe_eta) < 2.400000) * (probe_pt >= 40.000000 && probe_pt < 50.000000)'
p173
sg6
S'bin23_fabs(probe_eta)_2p10To2p40_probe_pt_40p00To50p00'
p174
sg8
(dp175
g10
(dp176
g12
F50.0
sg13
F40.0
ssg14
(dp177
g12
F2.4
sg13
F2.1
sssg16
S'; 2.100 < fabs(probe_eta) < 2.400; 40.000 < probe_pt < 50.000'
p178
sa(dp179
g4
S'(probe_isTracker && tag_HLT_IsoMu27_v==1 && tag_pt > 29 && fabs(tag_eta) < 2.4 && (tag_pfIso04_charged + max(0, tag_pfIso04_neutral+tag_pfIso04_photon-(0.5*tag_pfIso04_sumPU)))/tag_pt < 0.2 && tag_isTight && 60 < pair_mass && pair_mass < 140 && pair_dR > 0.3 && pair_probeMultiplicity == 1) * (fabs(probe_eta) >= 0.000000 && fabs(probe_eta) < 0.900000) * (probe_pt >= 50.000000 && probe_pt < 60.000000)'
p180
sg6
S'bin24_fabs(probe_eta)_0p00To0p90_probe_pt_50p00To60p00'
p181
sg8
(dp182
g10
(dp183
g12
F60.0
sg13
F50.0
ssg14
(dp184
g12
F0.9
sg13
F0.0
sssg16
S'; 0.000 < fabs(probe_eta) < 0.900; 50.000 < probe_pt < 60.000'
p185
sa(dp186
g4
S'(probe_isTracker && tag_HLT_IsoMu27_v==1 && tag_pt > 29 && fabs(tag_eta) < 2.4 && (tag_pfIso04_charged + max(0, tag_pfIso04_neutral+tag_pfIso04_photon-(0.5*tag_pfIso04_sumPU)))/tag_pt < 0.2 && tag_isTight && 60 < pair_mass && pair_mass < 140 && pair_dR > 0.3 && pair_probeMultiplicity == 1) * (fabs(probe_eta) >= 0.900000 && fabs(probe_eta) < 1.200000) * (probe_pt >= 50.000000 && probe_pt < 60.000000)'
p187
sg6
S'bin25_fabs(probe_eta)_0p90To1p20_probe_pt_50p00To60p00'
p188
sg8
(dp189
g10
(dp190
g12
F60.0
sg13
F50.0
ssg14
(dp191
g12
F1.2
sg13
F0.9
sssg16
S'; 0.900 < fabs(probe_eta) < 1.200; 50.000 < probe_pt < 60.000'
p192
sa(dp193
g4
S'(probe_isTracker && tag_HLT_IsoMu27_v==1 && tag_pt > 29 && fabs(tag_eta) < 2.4 && (tag_pfIso04_charged + max(0, tag_pfIso04_neutral+tag_pfIso04_photon-(0.5*tag_pfIso04_sumPU)))/tag_pt < 0.2 && tag_isTight && 60 < pair_mass && pair_mass < 140 && pair_dR > 0.3 && pair_probeMultiplicity == 1) * (fabs(probe_eta) >= 1.200000 && fabs(probe_eta) < 2.100000) * (probe_pt >= 50.000000 && probe_pt < 60.000000)'
p194
sg6
S'bin26_fabs(probe_eta)_1p20To2p10_probe_pt_50p00To60p00'
p195
sg8
(dp196
g10
(dp197
g12
F60.0
sg13
F50.0
ssg14
(dp198
g12
F2.1
sg13
F1.2
sssg16
S'; 1.200 < fabs(probe_eta) < 2.100; 50.000 < probe_pt < 60.000'
p199
sa(dp200
g4
S'(probe_isTracker && tag_HLT_IsoMu27_v==1 && tag_pt > 29 && fabs(tag_eta) < 2.4 && (tag_pfIso04_charged + max(0, tag_pfIso04_neutral+tag_pfIso04_photon-(0.5*tag_pfIso04_sumPU)))/tag_pt < 0.2 && tag_isTight && 60 < pair_mass && pair_mass < 140 && pair_dR > 0.3 && pair_probeMultiplicity == 1) * (fabs(probe_eta) >= 2.100000 && fabs(probe_eta) < 2.400000) * (probe_pt >= 50.000000 && probe_pt < 60.000000)'
p201
sg6
S'bin27_fabs(probe_eta)_2p10To2p40_probe_pt_50p00To60p00'
p202
sg8
(dp203
g10
(dp204
g12
F60.0
sg13
F50.0
ssg14
(dp205
g12
F2.4
sg13
F2.1
sssg16
S'; 2.100 < fabs(probe_eta) < 2.400; 50.000 < probe_pt < 60.000'
p206
sa(dp207
g4
S'(probe_isTracker && tag_HLT_IsoMu27_v==1 && tag_pt > 29 && fabs(tag_eta) < 2.4 && (tag_pfIso04_charged + max(0, tag_pfIso04_neutral+tag_pfIso04_photon-(0.5*tag_pfIso04_sumPU)))/tag_pt < 0.2 && tag_isTight && 60 < pair_mass && pair_mass < 140 && pair_dR > 0.3 && pair_probeMultiplicity == 1) * (fabs(probe_eta) >= 0.000000 && fabs(probe_eta) < 0.900000) * (probe_pt >= 60.000000 && probe_pt < 120.000000)'
p208
sg6
S'bin28_fabs(probe_eta)_0p00To0p90_probe_pt_60p00To120p00'
p209
sg8
(dp210
g10
(dp211
g12
F120.0
sg13
F60.0
ssg14
(dp212
g12
F0.9
sg13
F0.0
sssg16
S'; 0.000 < fabs(probe_eta) < 0.900; 60.000 < probe_pt < 120.000'
p213
sa(dp214
g4
S'(probe_isTracker && tag_HLT_IsoMu27_v==1 && tag_pt > 29 && fabs(tag_eta) < 2.4 && (tag_pfIso04_charged + max(0, tag_pfIso04_neutral+tag_pfIso04_photon-(0.5*tag_pfIso04_sumPU)))/tag_pt < 0.2 && tag_isTight && 60 < pair_mass && pair_mass < 140 && pair_dR > 0.3 && pair_probeMultiplicity == 1) * (fabs(probe_eta) >= 0.900000 && fabs(probe_eta) < 1.200000) * (probe_pt >= 60.000000 && probe_pt < 120.000000)'
p215
sg6
S'bin29_fabs(probe_eta)_0p90To1p20_probe_pt_60p00To120p00'
p216
sg8
(dp217
g10
(dp218
g12
F120.0
sg13
F60.0
ssg14
(dp219
g12
F1.2
sg13
F0.9
sssg16
S'; 0.900 < fabs(probe_eta) < 1.200; 60.000 < probe_pt < 120.000'
p220
sa(dp221
g4
S'(probe_isTracker && tag_HLT_IsoMu27_v==1 && tag_pt > 29 && fabs(tag_eta) < 2.4 && (tag_pfIso04_charged + max(0, tag_pfIso04_neutral+tag_pfIso04_photon-(0.5*tag_pfIso04_sumPU)))/tag_pt < 0.2 && tag_isTight && 60 < pair_mass && pair_mass < 140 && pair_dR > 0.3 && pair_probeMultiplicity == 1) * (fabs(probe_eta) >= 1.200000 && fabs(probe_eta) < 2.100000) * (probe_pt >= 60.000000 && probe_pt < 120.000000)'
p222
sg6
S'bin30_fabs(probe_eta)_1p20To2p10_probe_pt_60p00To120p00'
p223
sg8
(dp224
g10
(dp225
g12
F120.0
sg13
F60.0
ssg14
(dp226
g12
F2.1
sg13
F1.2
sssg16
S'; 1.200 < fabs(probe_eta) < 2.100; 60.000 < probe_pt < 120.000'
p227
sa(dp228
g4
S'(probe_isTracker && tag_HLT_IsoMu27_v==1 && tag_pt > 29 && fabs(tag_eta) < 2.4 && (tag_pfIso04_charged + max(0, tag_pfIso04_neutral+tag_pfIso04_photon-(0.5*tag_pfIso04_sumPU)))/tag_pt < 0.2 && tag_isTight && 60 < pair_mass && pair_mass < 140 && pair_dR > 0.3 && pair_probeMultiplicity == 1) * (fabs(probe_eta) >= 2.100000 && fabs(probe_eta) < 2.400000) * (probe_pt >= 60.000000 && probe_pt < 120.000000)'
p229
sg6
S'bin31_fabs(probe_eta)_2p10To2p40_probe_pt_60p00To120p00'
p230
sg8
(dp231
g10
(dp232
g12
F120.0
sg13
F60.0
ssg14
(dp233
g12
F2.4
sg13
F2.1
sssg16
S'; 2.100 < fabs(probe_eta) < 2.400; 60.000 < probe_pt < 120.000'
p234
sa(dp235
g4
S'(probe_isTracker && tag_HLT_IsoMu27_v==1 && tag_pt > 29 && fabs(tag_eta) < 2.4 && (tag_pfIso04_charged + max(0, tag_pfIso04_neutral+tag_pfIso04_photon-(0.5*tag_pfIso04_sumPU)))/tag_pt < 0.2 && tag_isTight && 60 < pair_mass && pair_mass < 140 && pair_dR > 0.3 && pair_probeMultiplicity == 1) * (fabs(probe_eta) >= 0.000000 && fabs(probe_eta) < 0.900000) * (probe_pt >= 120.000000 && probe_pt < 200.000000)'
p236
sg6
S'bin32_fabs(probe_eta)_0p00To0p90_probe_pt_120p00To200p00'
p237
sg8
(dp238
g10
(dp239
g12
F200.0
sg13
F120.0
ssg14
(dp240
g12
F0.9
sg13
F0.0
sssg16
S'; 0.000 < fabs(probe_eta) < 0.900; 120.000 < probe_pt < 200.000'
p241
sa(dp242
g4
S'(probe_isTracker && tag_HLT_IsoMu27_v==1 && tag_pt > 29 && fabs(tag_eta) < 2.4 && (tag_pfIso04_charged + max(0, tag_pfIso04_neutral+tag_pfIso04_photon-(0.5*tag_pfIso04_sumPU)))/tag_pt < 0.2 && tag_isTight && 60 < pair_mass && pair_mass < 140 && pair_dR > 0.3 && pair_probeMultiplicity == 1) * (fabs(probe_eta) >= 0.900000 && fabs(probe_eta) < 1.200000) * (probe_pt >= 120.000000 && probe_pt < 200.000000)'
p243
sg6
S'bin33_fabs(probe_eta)_0p90To1p20_probe_pt_120p00To200p00'
p244
sg8
(dp245
g10
(dp246
g12
F200.0
sg13
F120.0
ssg14
(dp247
g12
F1.2
sg13
F0.9
sssg16
S'; 0.900 < fabs(probe_eta) < 1.200; 120.000 < probe_pt < 200.000'
p248
sa(dp249
g4
S'(probe_isTracker && tag_HLT_IsoMu27_v==1 && tag_pt > 29 && fabs(tag_eta) < 2.4 && (tag_pfIso04_charged + max(0, tag_pfIso04_neutral+tag_pfIso04_photon-(0.5*tag_pfIso04_sumPU)))/tag_pt < 0.2 && tag_isTight && 60 < pair_mass && pair_mass < 140 && pair_dR > 0.3 && pair_probeMultiplicity == 1) * (fabs(probe_eta) >= 1.200000 && fabs(probe_eta) < 2.100000) * (probe_pt >= 120.000000 && probe_pt < 200.000000)'
p250
sg6
S'bin34_fabs(probe_eta)_1p20To2p10_probe_pt_120p00To200p00'
p251
sg8
(dp252
g10
(dp253
g12
F200.0
sg13
F120.0
ssg14
(dp254
g12
F2.1
sg13
F1.2
sssg16
S'; 1.200 < fabs(probe_eta) < 2.100; 120.000 < probe_pt < 200.000'
p255
sa(dp256
g4
S'(probe_isTracker && tag_HLT_IsoMu27_v==1 && tag_pt > 29 && fabs(tag_eta) < 2.4 && (tag_pfIso04_charged + max(0, tag_pfIso04_neutral+tag_pfIso04_photon-(0.5*tag_pfIso04_sumPU)))/tag_pt < 0.2 && tag_isTight && 60 < pair_mass && pair_mass < 140 && pair_dR > 0.3 && pair_probeMultiplicity == 1) * (fabs(probe_eta) >= 2.100000 && fabs(probe_eta) < 2.400000) * (probe_pt >= 120.000000 && probe_pt < 200.000000)'
p257
sg6
S'bin35_fabs(probe_eta)_2p10To2p40_probe_pt_120p00To200p00'
p258
sg8
(dp259
g10
(dp260
g12
F200.0
sg13
F120.0
ssg14
(dp261
g12
F2.4
sg13
F2.1
sssg16
S'; 2.100 < fabs(probe_eta) < 2.400; 120.000 < probe_pt < 200.000'
p262
sasg8
(lp263
g14
ag10
as.